target datalayout = "e-m:e-p270:32:32-p271:32:32-p272:64:64-i64:64-i128:128-f80:128-n8:16:32:64-S128"
target triple = "x86_64-pc-linux-gnu"

%struct.LogicalRepRelMapEntry = type { %struct.LogicalRepRelation, i8, i32, ptr, ptr, i8, i32, i8, i64 }
%struct.LogicalRepRelation = type { i32, ptr, ptr, i32, ptr, ptr, i8, i8, ptr }
%struct.ApplyExecutionData = type { ptr, ptr, ptr, ptr, ptr }
%struct.EState = type { i32, i32, ptr, ptr, ptr, i32, ptr, ptr, ptr, ptr, ptr, ptr, ptr, ptr, ptr, ptr, i32, ptr, ptr, ptr, ptr, ptr, ptr, ptr, ptr, ptr, ptr, i64, i64, i32, i32, i8, ptr, ptr, ptr, ptr, ptr, i8, i32, i32, ptr, i32, ptr, ptr, ptr, ptr }
%struct.EPQState = type { ptr, i32, ptr, ptr, ptr, ptr, ptr, ptr, ptr, ptr, ptr, ptr, ptr }
%struct.ResultRelInfo = type { i32, i32, ptr, i32, ptr, ptr, i16, ptr, i8, ptr, ptr, ptr, i8, i8, ptr, ptr, ptr, ptr, ptr, ptr, ptr, ptr, ptr, ptr, i8, i32, i32, i32, ptr, ptr, ptr, ptr, ptr, ptr, ptr, i32, i32, ptr, ptr, ptr, ptr, [3 x ptr], ptr, ptr, ptr, i8, ptr, i8, ptr, ptr, ptr, ptr }

@replorigin_session_origin = external global i16, align 2

; Function Attrs: nounwind uwtable
define internal zeroext i1 @FindReplTupleInLocalRel(ptr noundef %0, ptr noundef %1, ptr noundef %2, i32 noundef %3, ptr noundef %4, ptr noundef %5) #0 {
  %7 = alloca ptr, align 8
  %8 = alloca ptr, align 8
  %9 = alloca ptr, align 8
  %10 = alloca i32, align 4
  %11 = alloca ptr, align 8
  %12 = alloca ptr, align 8
  %13 = alloca ptr, align 8
  %14 = alloca i8, align 1
  store ptr %0, ptr %7, align 8
  store ptr %1, ptr %8, align 8
  store ptr %2, ptr %9, align 8
  store i32 %3, ptr %10, align 4
  store ptr %4, ptr %11, align 8
  store ptr %5, ptr %12, align 8
  call void @llvm.lifetime.start.p0(i64 8, ptr %13) #12
  %15 = load ptr, ptr %7, align 8
  %16 = getelementptr inbounds nuw %struct.ApplyExecutionData, ptr %15, i32 0, i32 0
  %17 = load ptr, ptr %16, align 8
  store ptr %17, ptr %13, align 8
  call void @llvm.lifetime.start.p0(i64 1, ptr %14) #12
  %18 = load ptr, ptr %8, align 8
  call void @TargetPrivilegesCheck(ptr noundef %18, i64 noundef 2)
  %19 = load ptr, ptr %8, align 8
  %20 = load ptr, ptr %13, align 8
  %21 = getelementptr inbounds nuw %struct.EState, ptr %20, i32 0, i32 26
  %22 = call ptr @table_slot_create(ptr noundef %19, ptr noundef %21)
  %23 = load ptr, ptr %12, align 8
  store ptr %22, ptr %23, align 8
  %24 = load i32, ptr %10, align 4
  %25 = icmp ne i32 %24, 0
  br i1 %25, label %26, label %34

26:                                               ; preds = %6
  %27 = load ptr, ptr %8, align 8
  %28 = load i32, ptr %10, align 4
  %29 = load ptr, ptr %11, align 8
  %30 = load ptr, ptr %12, align 8
  %31 = load ptr, ptr %30, align 8
  %32 = call zeroext i1 @RelationFindReplTupleByIndex(ptr noundef %27, i32 noundef %28, i32 noundef 3, ptr noundef %29, ptr noundef %31)
  %33 = zext i1 %32 to i8
  store i8 %33, ptr %14, align 1
  br label %41

34:                                               ; preds = %6
  %35 = load ptr, ptr %8, align 8
  %36 = load ptr, ptr %11, align 8
  %37 = load ptr, ptr %12, align 8
  %38 = load ptr, ptr %37, align 8
  %39 = call zeroext i1 @RelationFindReplTupleSeq(ptr noundef %35, i32 noundef 3, ptr noundef %36, ptr noundef %38)
  %40 = zext i1 %39 to i8
  store i8 %40, ptr %14, align 1
  br label %41

41:                                               ; preds = %34, %26
  %42 = load i8, ptr %14, align 1, !range !4, !noundef !5
  %43 = trunc i8 %42 to i1
  call void @llvm.lifetime.end.p0(i64 1, ptr %14) #12
  call void @llvm.lifetime.end.p0(i64 8, ptr %13) #12
  ret i1 %43
}

; Function Attrs: nounwind uwtable
define internal void @apply_handle_delete_internal(ptr noundef %0, ptr noundef %1, ptr noundef %2, i32 noundef %3) #0 {
  %5 = alloca ptr, align 8
  %6 = alloca ptr, align 8
  %7 = alloca ptr, align 8
  %8 = alloca i32, align 4
  %9 = alloca ptr, align 8
  %10 = alloca ptr, align 8
  %11 = alloca ptr, align 8
  %12 = alloca %struct.EPQState, align 8
  %13 = alloca ptr, align 8
  %14 = alloca i8, align 1
  %15 = alloca i16, align 2
  %16 = alloca i32, align 4
  %17 = alloca i64, align 8
  store ptr %0, ptr %5, align 8
  store ptr %1, ptr %6, align 8
  store ptr %2, ptr %7, align 8
  store i32 %3, ptr %8, align 4
  call void @llvm.lifetime.start.p0(i64 8, ptr %9) #12
  %18 = load ptr, ptr %5, align 8
  %19 = getelementptr inbounds nuw %struct.ApplyExecutionData, ptr %18, i32 0, i32 0
  %20 = load ptr, ptr %19, align 8
  store ptr %20, ptr %9, align 8
  call void @llvm.lifetime.start.p0(i64 8, ptr %10) #12
  %21 = load ptr, ptr %6, align 8
  %22 = getelementptr inbounds nuw %struct.ResultRelInfo, ptr %21, i32 0, i32 2
  %23 = load ptr, ptr %22, align 8
  store ptr %23, ptr %10, align 8
  call void @llvm.lifetime.start.p0(i64 8, ptr %11) #12
  %24 = load ptr, ptr %5, align 8
  %25 = getelementptr inbounds nuw %struct.ApplyExecutionData, ptr %24, i32 0, i32 1
  %26 = load ptr, ptr %25, align 8
  %27 = getelementptr inbounds nuw %struct.LogicalRepRelMapEntry, ptr %26, i32 0, i32 0
  store ptr %27, ptr %11, align 8
  call void @llvm.lifetime.start.p0(i64 104, ptr %12) #12
  call void @llvm.lifetime.start.p0(i64 8, ptr %13) #12
  call void @llvm.lifetime.start.p0(i64 1, ptr %14) #12
  %28 = load ptr, ptr %9, align 8
  call void @EvalPlanQualInit(ptr noundef %12, ptr noundef %28, ptr noundef null, ptr noundef null, i32 noundef -1, ptr noundef null)
  %29 = load ptr, ptr %6, align 8
  call void @ExecOpenIndices(ptr noundef %29, i1 noundef zeroext false)
  %30 = load ptr, ptr %5, align 8
  %31 = load ptr, ptr %10, align 8
  %32 = load ptr, ptr %11, align 8
  %33 = load i32, ptr %8, align 4
  %34 = load ptr, ptr %7, align 8
  %35 = call zeroext i1 @FindReplTupleInLocalRel(ptr noundef %30, ptr noundef %31, ptr noundef %32, i32 noundef %33, ptr noundef %34, ptr noundef %13)
  %36 = zext i1 %35 to i8
  store i8 %36, ptr %14, align 1
  %37 = load i8, ptr %14, align 1, !range !4, !noundef !5
  %38 = trunc i8 %37 to i1
  br i1 %38, label %39, label %65

39:                                               ; preds = %4
  call void @llvm.lifetime.start.p0(i64 2, ptr %15) #12
  call void @llvm.lifetime.start.p0(i64 4, ptr %16) #12
  call void @llvm.lifetime.start.p0(i64 8, ptr %17) #12
  %40 = load ptr, ptr %13, align 8
  %41 = call zeroext i1 @GetTupleTransactionInfo(ptr noundef %40, ptr noundef %16, ptr noundef %15, ptr noundef %17)
  br i1 %41, label %42, label %56

42:                                               ; preds = %39
  %43 = load i16, ptr %15, align 2
  %44 = zext i16 %43 to i32
  %45 = load i16, ptr @replorigin_session_origin, align 2
  %46 = zext i16 %45 to i32
  %47 = icmp ne i32 %44, %46
  br i1 %47, label %48, label %56

48:                                               ; preds = %42
  %49 = load ptr, ptr %9, align 8
  %50 = load ptr, ptr %6, align 8
  %51 = load ptr, ptr %7, align 8
  %52 = load ptr, ptr %13, align 8
  %53 = load i32, ptr %16, align 4
  %54 = load i16, ptr %15, align 2
  %55 = load i64, ptr %17, align 8
  call void @ReportApplyConflict(ptr noundef %49, ptr noundef %50, i32 noundef 15, i32 noundef 4, ptr noundef %51, ptr noundef %52, ptr noundef null, i32 noundef 0, i32 noundef %53, i16 noundef zeroext %54, i64 noundef %55)
  br label %56

56:                                               ; preds = %48, %42, %39
  %57 = load ptr, ptr %13, align 8
  %58 = getelementptr inbounds nuw %struct.EPQState, ptr %12, i32 0, i32 7
  store ptr %57, ptr %58, align 8
  %59 = load ptr, ptr %6, align 8
  %60 = getelementptr inbounds nuw %struct.ResultRelInfo, ptr %59, i32 0, i32 2
  %61 = load ptr, ptr %60, align 8
  call void @TargetPrivilegesCheck(ptr noundef %61, i64 noundef 8)
  %62 = load ptr, ptr %6, align 8
  %63 = load ptr, ptr %9, align 8
  %64 = load ptr, ptr %13, align 8
  call void @ExecSimpleRelationDelete(ptr noundef %62, ptr noundef %63, ptr noundef %12, ptr noundef %64)
  call void @llvm.lifetime.end.p0(i64 8, ptr %17) #12
  call void @llvm.lifetime.end.p0(i64 4, ptr %16) #12
  call void @llvm.lifetime.end.p0(i64 2, ptr %15) #12
  br label %69

65:                                               ; preds = %4
  %66 = load ptr, ptr %9, align 8
  %67 = load ptr, ptr %6, align 8
  %68 = load ptr, ptr %7, align 8
  call void @ReportApplyConflict(ptr noundef %66, ptr noundef %67, i32 noundef 15, i32 noundef 5, ptr noundef %68, ptr noundef null, ptr noundef null, i32 noundef 0, i32 noundef 0, i16 noundef zeroext 0, i64 noundef 0)
  br label %69

69:                                               ; preds = %65, %56
  %70 = load ptr, ptr %6, align 8
  call void @ExecCloseIndices(ptr noundef %70)
  call void @EvalPlanQualEnd(ptr noundef %12)
  call void @llvm.lifetime.end.p0(i64 1, ptr %14) #12
  call void @llvm.lifetime.end.p0(i64 8, ptr %13) #12
  call void @llvm.lifetime.end.p0(i64 104, ptr %12) #12
  call void @llvm.lifetime.end.p0(i64 8, ptr %11) #12
  call void @llvm.lifetime.end.p0(i64 8, ptr %10) #12
  call void @llvm.lifetime.end.p0(i64 8, ptr %9) #12
  ret void
}