; Function Attrs: nounwind uwtable
define internal fastcc void @apply_handle_delete_internal(ptr noundef readonly captures(none) %0, ptr noundef %1, ptr noundef %2, i32 noundef %3) unnamed_addr #0 {
  %5 = alloca %struct.EPQState, align 8
  %6 = alloca i16, align 2
  %7 = alloca i32, align 4
  %8 = alloca i64, align 8
  %9 = load ptr, ptr %0, align 8
  %10 = getelementptr inbounds nuw i8, ptr %1, i64 8
  %11 = load ptr, ptr %10, align 8
  call void @llvm.lifetime.start.p0(i64 104, ptr nonnull %5) #17
  call void @EvalPlanQualInit(ptr noundef nonnull %5, ptr noundef %9, ptr noundef null, ptr noundef null, i32 noundef -1, ptr noundef null) #17
  call void @ExecOpenIndices(ptr noundef %1, i1 noundef zeroext false) #17
  %.val = load ptr, ptr %0, align 8
  call fastcc void @TargetPrivilegesCheck(ptr noundef %11, i64 noundef 2)
  %12 = getelementptr inbounds nuw i8, ptr %.val, i64 200
  %13 = call ptr @table_slot_create(ptr noundef %11, ptr noundef nonnull %12) #17
  %.not.i = icmp eq i32 %3, 0
  br i1 %.not.i, label %FindReplTupleInLocalRel.exit, label %14

14:                                               ; preds = %4
  %15 = call zeroext i1 @RelationFindReplTupleByIndex(ptr noundef %11, i32 noundef %3, i32 noundef 3, ptr noundef %2, ptr noundef %13) #17
  br i1 %15, label %17, label %28

FindReplTupleInLocalRel.exit:                     ; preds = %4
  %16 = call zeroext i1 @RelationFindReplTupleSeq(ptr noundef %11, i32 noundef 3, ptr noundef %2, ptr noundef %13) #17
  br i1 %16, label %17, label %28

17:                                               ; preds = %14, %FindReplTupleInLocalRel.exit
  call void @llvm.lifetime.start.p0(i64 2, ptr nonnull %6) #17
  call void @llvm.lifetime.start.p0(i64 4, ptr nonnull %7) #17
  call void @llvm.lifetime.start.p0(i64 8, ptr nonnull %8) #17
  %18 = call zeroext i1 @GetTupleTransactionInfo(ptr noundef %13, ptr noundef nonnull %7, ptr noundef nonnull %6, ptr noundef nonnull %8) #17
  br i1 %18, label %19, label %25

19:                                               ; preds = %17
  %20 = load i16, ptr %6, align 2
  %21 = load i16, ptr @replorigin_session_origin, align 2
  %.not = icmp eq i16 %20, %21
  br i1 %.not, label %25, label %22

22:                                               ; preds = %19
  %23 = load i32, ptr %7, align 4
  %24 = load i64, ptr %8, align 8
  call void @ReportApplyConflict(ptr noundef %9, ptr noundef nonnull %1, i32 noundef 15, i32 noundef 4, ptr noundef %2, ptr noundef %13, ptr noundef null, i32 noundef 0, i32 noundef %23, i16 noundef zeroext %20, i64 noundef %24) #17
  br label %25

25:                                               ; preds = %22, %19, %17
  %26 = getelementptr inbounds nuw i8, ptr %5, i64 56
  store ptr %13, ptr %26, align 8
  %27 = load ptr, ptr %10, align 8
  call fastcc void @TargetPrivilegesCheck(ptr noundef %27, i64 noundef 8)
  call void @ExecSimpleRelationDelete(ptr noundef nonnull %1, ptr noundef %9, ptr noundef nonnull %5, ptr noundef %13) #17
  call void @llvm.lifetime.end.p0(i64 8, ptr nonnull %8) #17
  call void @llvm.lifetime.end.p0(i64 4, ptr nonnull %7) #17
  call void @llvm.lifetime.end.p0(i64 2, ptr nonnull %6) #17
  br label %29

28:                                               ; preds = %14, %FindReplTupleInLocalRel.exit
  call void @ReportApplyConflict(ptr noundef %9, ptr noundef nonnull %1, i32 noundef 15, i32 noundef 5, ptr noundef %2, ptr noundef null, ptr noundef null, i32 noundef 0, i32 noundef 0, i16 noundef zeroext 0, i64 noundef 0) #17
  br label %29

29:                                               ; preds = %28, %25
  call void @ExecCloseIndices(ptr noundef nonnull %1) #17
  call void @EvalPlanQualEnd(ptr noundef nonnull %5) #17
  call void @llvm.lifetime.end.p0(i64 104, ptr nonnull %5) #17
  ret void
}